target datalayout = "e-m:e-p270:32:32-p271:32:32-p272:64:64-i64:64-i128:128-f80:128-n8:16:32:64-S128"
target triple = "x86_64-pc-linux-gnu"

%struct.H5L_trav_gibi_t = type { i32, i32, i64, ptr }

@.str = private unnamed_addr constant [100 x i8] c"generated/home/dtcxzyw/WorkSpace/Projects/compilers/llvm-opt-benchmark/bench/hdf5/hdf5/src/H5Lint.c\00", align 1
@H5E_LINK_g = external global i64, align 8
@H5E_CANTGET_g = external global i64, align 8
@__func__.H5L__get_info_by_idx = private unnamed_addr constant [21 x i8] c"H5L__get_info_by_idx\00", align 1
@.str.22 = private unnamed_addr constant [24 x i8] c"unable to get link info\00", align 1

; Function Attrs: nounwind uwtable
define i32 @H5L__get_info_by_idx(ptr noundef %0, ptr noundef %1, i32 noundef %2, i32 noundef %3, i64 noundef %4, ptr noundef %5) #0 {
  %7 = alloca ptr, align 8
  %8 = alloca ptr, align 8
  %9 = alloca i32, align 4
  %10 = alloca i32, align 4
  %11 = alloca i64, align 8
  %12 = alloca ptr, align 8
  %13 = alloca %struct.H5L_trav_gibi_t, align 8
  %14 = alloca i32, align 4
  %15 = alloca i8, align 1
  store ptr %0, ptr %7, align 8
  store ptr %1, ptr %8, align 8
  store i32 %2, ptr %9, align 4
  store i32 %3, ptr %10, align 4
  store i64 %4, ptr %11, align 8
  store ptr %5, ptr %12, align 8
  store i32 0, ptr %14, align 4
  store i8 0, ptr %15, align 1
  %16 = load i32, ptr %9, align 4
  %17 = getelementptr inbounds %struct.H5L_trav_gibi_t, ptr %13, i32 0, i32 0
  store i32 %16, ptr %17, align 8
  %18 = load i32, ptr %10, align 4
  %19 = getelementptr inbounds %struct.H5L_trav_gibi_t, ptr %13, i32 0, i32 1
  store i32 %18, ptr %19, align 4
  %20 = load i64, ptr %11, align 8
  %21 = getelementptr inbounds %struct.H5L_trav_gibi_t, ptr %13, i32 0, i32 2
  store i64 %20, ptr %21, align 8
  %22 = load ptr, ptr %12, align 8
  %23 = getelementptr inbounds %struct.H5L_trav_gibi_t, ptr %13, i32 0, i32 3
  store ptr %22, ptr %23, align 8
  %24 = load ptr, ptr %7, align 8
  %25 = load ptr, ptr %8, align 8
  %26 = call i32 @H5G_traverse(ptr noundef %24, ptr noundef %25, i32 noundef 5, ptr noundef @H5L__get_info_by_idx_cb, ptr noundef %13)
  %27 = icmp slt i32 %26, 0
  br i1 %27, label %28, label %43

28:                                               ; preds = %6
  br label %29

29:                                               ; preds = %28
  br label %30

30:                                               ; preds = %29
  br label %31

31:                                               ; preds = %30
  %32 = load i64, ptr @H5E_LINK_g, align 8
  %33 = load i64, ptr @H5E_CANTGET_g, align 8
  %34 = call i32 (ptr, ptr, i32, i64, i64, ptr, ...) @H5E_printf_stack(ptr noundef @.str, ptr noundef @__func__.H5L__get_info_by_idx, i32 noundef 1901, i64 noundef %32, i64 noundef %33, ptr noundef @.str.22)
  br label %35

35:                                               ; preds = %31
  store i8 1, ptr %15, align 1
  %36 = load i8, ptr %15, align 1
  %37 = trunc i8 %36 to i1
  %38 = zext i1 %37 to i8
  store i8 %38, ptr %15, align 1
  br label %39

39:                                               ; preds = %35
  br label %40

40:                                               ; preds = %39
  store i32 -1, ptr %14, align 4
  br label %44

41:                                               ; No predecessors!
  br label %42

42:                                               ; preds = %41
  br label %43

43:                                               ; preds = %42, %6
  br label %44

44:                                               ; preds = %43, %40
  %45 = load i32, ptr %14, align 4
  ret i32 %45
}