; Function Attrs: nounwind uwtable
define range(i32 -1, 1) i32 @H5L__get_info_by_idx(ptr noundef %0, ptr noundef %1, i32 noundef %2, i32 noundef %3, i64 noundef %4, ptr noundef %5) local_unnamed_addr #0 {
  %7 = alloca %struct.H5L_trav_gibi_t, align 8
  store i32 %2, ptr %7, align 8
  %8 = getelementptr inbounds i8, ptr %7, i64 4
  store i32 %3, ptr %8, align 4
  %9 = getelementptr inbounds i8, ptr %7, i64 8
  store i64 %4, ptr %9, align 8
  %10 = getelementptr inbounds i8, ptr %7, i64 16
  store ptr %5, ptr %10, align 8
  %11 = call i32 @H5G_traverse(ptr noundef %0, ptr noundef %1, i32 noundef 5, ptr noundef nonnull @H5L__get_info_by_idx_cb, ptr noundef nonnull %7) #10
  %12 = icmp slt i32 %11, 0
  br i1 %12, label %13, label %17

13:                                               ; preds = %6
  %14 = load i64, ptr @H5E_LINK_g, align 8
  %15 = load i64, ptr @H5E_CANTGET_g, align 8
  %16 = call i32 (ptr, ptr, i32, i64, i64, ptr, ...) @H5E_printf_stack(ptr noundef nonnull @.str, ptr noundef nonnull @__func__.H5L__get_info_by_idx, i32 noundef 1901, i64 noundef %14, i64 noundef %15, ptr noundef nonnull @.str.22) #10
  br label %17

17:                                               ; preds = %6, %13
  %.0 = phi i32 [ -1, %13 ], [ 0, %6 ]
  ret i32 %.0
}